target datalayout = "e-m:e-p270:32:32-p271:32:32-p272:64:64-i64:64-i128:128-f80:128-n8:16:32:64-S128"
target triple = "x86_64-pc-linux-gnu"

%struct.expdesc = type { i32, %union.anon, i32, i32 }
%union.anon = type { double }

; Function Attrs: nounwind uwtable
define hidden void @luaK_exp2val(ptr noundef %0, ptr noundef %1) #0 {
  %3 = alloca ptr, align 8
  %4 = alloca ptr, align 8
  store ptr %0, ptr %3, align 8, !tbaa !4
  store ptr %1, ptr %4, align 8, !tbaa !60
  %5 = load ptr, ptr %4, align 8, !tbaa !60
  %6 = getelementptr inbounds nuw %struct.expdesc, ptr %5, i32 0, i32 2
  %7 = load i32, ptr %6, align 8, !tbaa !64
  %8 = load ptr, ptr %4, align 8, !tbaa !60
  %9 = getelementptr inbounds nuw %struct.expdesc, ptr %8, i32 0, i32 3
  %10 = load i32, ptr %9, align 4, !tbaa !65
  %11 = icmp ne i32 %7, %10
  br i1 %11, label %12, label %16

12:                                               ; preds = %2
  %13 = load ptr, ptr %3, align 8, !tbaa !4
  %14 = load ptr, ptr %4, align 8, !tbaa !60
  %15 = call i32 @luaK_exp2anyreg(ptr noundef %13, ptr noundef %14)
  br label %19

16:                                               ; preds = %2
  %17 = load ptr, ptr %3, align 8, !tbaa !4
  %18 = load ptr, ptr %4, align 8, !tbaa !60
  call void @luaK_dischargevars(ptr noundef %17, ptr noundef %18)
  br label %19

19:                                               ; preds = %16, %12
  ret void
}