; Function Attrs: nounwind uwtable
define hidden void @luaK_exp2val(ptr noundef captures(none) %0, ptr noundef captures(none) %1) local_unnamed_addr #0 {
  %3 = getelementptr inbounds nuw i8, ptr %1, i64 16
  %4 = load i32, ptr %3, align 8, !tbaa !53
  %5 = getelementptr inbounds nuw i8, ptr %1, i64 20
  %6 = load i32, ptr %5, align 4, !tbaa !54
  %.not = icmp eq i32 %4, %6
  br i1 %.not, label %9, label %7

7:                                                ; preds = %2
  %8 = tail call i32 @luaK_exp2anyreg(ptr noundef %0, ptr noundef nonnull %1)
  br label %10

9:                                                ; preds = %2
  tail call void @luaK_dischargevars(ptr noundef %0, ptr noundef nonnull %1)
  br label %10

10:                                               ; preds = %9, %7
  ret void
}